; ModuleID = '49/851.cpp'
source_filename = "49/851.cpp"
target datalayout = "e-m:e-p270:32:32-p271:32:32-p272:64:64-i64:64-f80:128-n8:16:32:64-S128"
target triple = "x86_64-pc-linux-gnu"

%"class.std::ios_base::Init" = type { i8 }
%"class.std::basic_istream" = type { i32 (...)**, i64, %"class.std::basic_ios" }
%"class.std::basic_ios" = type { %"class.std::ios_base", %"class.std::basic_ostream"*, i8, i8, %"class.std::basic_streambuf"*, %"class.std::ctype"*, %"class.std::num_put"*, %"class.std::num_get"* }
%"class.std::ios_base" = type { i32 (...)**, i64, i64, i32, i32, i32, %"struct.std::ios_base::_Callback_list"*, %"struct.std::ios_base::_Words", [8 x %"struct.std::ios_base::_Words"], i32, %"struct.std::ios_base::_Words"*, %"class.std::locale" }
%"struct.std::ios_base::_Callback_list" = type { %"struct.std::ios_base::_Callback_list"*, void (i32, %"class.std::ios_base"*, i32)*, i32, i32 }
%"struct.std::ios_base::_Words" = type { i8*, i64 }
%"class.std::locale" = type { %"class.std::locale::_Impl"* }
%"class.std::locale::_Impl" = type { i32, %"class.std::locale::facet"**, i64, %"class.std::locale::facet"**, i8** }
%"class.std::locale::facet" = type <{ i32 (...)**, i32, [4 x i8] }>
%"class.std::basic_ostream" = type { i32 (...)**, %"class.std::basic_ios" }
%"class.std::basic_streambuf" = type { i32 (...)**, i8*, i8*, i8*, i8*, i8*, i8*, %"class.std::locale" }
%"class.std::ctype" = type <{ %"class.std::locale::facet.base", [4 x i8], %struct.__locale_struct*, i8, [7 x i8], i32*, i32*, i16*, i8, [256 x i8], [256 x i8], i8, [6 x i8] }>
%"class.std::locale::facet.base" = type <{ i32 (...)**, i32 }>
%struct.__locale_struct = type { [13 x %struct.__locale_data*], i16*, i32*, i32*, [13 x i8*] }
%struct.__locale_data = type opaque
%"class.std::num_put" = type { %"class.std::locale::facet.base", [4 x i8] }
%"class.std::num_get" = type { %"class.std::locale::facet.base", [4 x i8] }

@_ZStL8__ioinit = internal global %"class.std::ios_base::Init" zeroinitializer, align 1
@__dso_handle = external hidden global i8
@_ZSt3cin = external dso_local global %"class.std::basic_istream", align 8
@_ZSt4cout = external dso_local global %"class.std::basic_ostream", align 8
@llvm.global_ctors = appending global [1 x { i32, void ()*, i8* }] [{ i32, void ()*, i8* } { i32 65535, void ()* @_GLOBAL__sub_I_851.cpp, i8* null }]

; Function Attrs: noinline uwtable
define internal void @__cxx_global_var_init() #0 section ".text.startup" {
  call void @_ZNSt8ios_base4InitC1Ev(%"class.std::ios_base::Init"* @_ZStL8__ioinit)
  %1 = call i32 @__cxa_atexit(void (i8*)* bitcast (void (%"class.std::ios_base::Init"*)* @_ZNSt8ios_base4InitD1Ev to void (i8*)*), i8* getelementptr inbounds (%"class.std::ios_base::Init", %"class.std::ios_base::Init"* @_ZStL8__ioinit, i32 0, i32 0), i8* @__dso_handle) #3
  ret void
}

declare dso_local void @_ZNSt8ios_base4InitC1Ev(%"class.std::ios_base::Init"*) unnamed_addr #1

; Function Attrs: nounwind
declare dso_local void @_ZNSt8ios_base4InitD1Ev(%"class.std::ios_base::Init"*) unnamed_addr #2

; Function Attrs: nounwind
declare dso_local i32 @__cxa_atexit(void (i8*)*, i8*, i8*) #3

; Function Attrs: noinline norecurse uwtable
define dso_local i32 @main() #4 {
  %1 = alloca i32, align 4
  %2 = alloca [500 x i8], align 16
  %3 = alloca i32, align 4
  %4 = alloca i32, align 4
  %5 = alloca i32, align 4
  %6 = alloca i32, align 4
  %7 = alloca i32, align 4
  %8 = alloca i32, align 4
  %9 = alloca i32, align 4
  store i32 0, i32* %1, align 4
  %10 = getelementptr inbounds [500 x i8], [500 x i8]* %2, i64 0, i64 0
  %11 = call dereferenceable(280) %"class.std::basic_istream"* @_ZNSi7getlineEPcl(%"class.std::basic_istream"* @_ZSt3cin, i8* %10, i64 500)
  %12 = getelementptr inbounds [500 x i8], [500 x i8]* %2, i64 0, i64 0
  %13 = call i64 @strlen(i8* %12) #6
  %14 = trunc i64 %13 to i32
  store i32 %14, i32* %6, align 4
  store i32 1, i32* %3, align 4
  br label %15

15:                                               ; preds = %86, %0
  %16 = load i32, i32* %3, align 4
  %17 = load i32, i32* %6, align 4
  %18 = icmp slt i32 %16, %17
  br i1 %18, label %19, label %89

19:                                               ; preds = %15
  store i32 0, i32* %4, align 4
  br label %20

20:                                               ; preds = %82, %19
  %21 = load i32, i32* %4, align 4
  %22 = load i32, i32* %6, align 4
  %23 = load i32, i32* %3, align 4
  %24 = sub nsw i32 %22, %23
  %25 = icmp slt i32 %21, %24
  br i1 %25, label %26, label %85

26:                                               ; preds = %20
  %27 = load i32, i32* %4, align 4
  store i32 %27, i32* %7, align 4
  %28 = load i32, i32* %4, align 4
  %29 = load i32, i32* %3, align 4
  %30 = add nsw i32 %28, %29
  store i32 %30, i32* %8, align 4
  store i32 0, i32* %9, align 4
  br label %31

31:                                               ; preds = %49, %26
  %32 = load i32, i32* %7, align 4
  %33 = sext i32 %32 to i64
  %34 = getelementptr inbounds [500 x i8], [500 x i8]* %2, i64 0, i64 %33
  %35 = load i8, i8* %34, align 1
  %36 = sext i8 %35 to i32
  %37 = load i32, i32* %8, align 4
  %38 = sext i32 %37 to i64
  %39 = getelementptr inbounds [500 x i8], [500 x i8]* %2, i64 0, i64 %38
  %40 = load i8, i8* %39, align 1
  %41 = sext i8 %40 to i32
  %42 = icmp eq i32 %36, %41
  br i1 %42, label %43, label %47

43:                                               ; preds = %31
  %44 = load i32, i32* %7, align 4
  %45 = load i32, i32* %8, align 4
  %46 = icmp slt i32 %44, %45
  br label %47

47:                                               ; preds = %43, %31
  %48 = phi i1 [ false, %31 ], [ %46, %43 ]
  br i1 %48, label %49, label %56

49:                                               ; preds = %47
  %50 = load i32, i32* %7, align 4
  %51 = add nsw i32 %50, 1
  store i32 %51, i32* %7, align 4
  %52 = load i32, i32* %8, align 4
  %53 = add nsw i32 %52, -1
  store i32 %53, i32* %8, align 4
  %54 = load i32, i32* %9, align 4
  %55 = add nsw i32 %54, 1
  store i32 %55, i32* %9, align 4
  br label %31

56:                                               ; preds = %47
  %57 = load i32, i32* %9, align 4
  %58 = load i32, i32* %3, align 4
  %59 = sdiv i32 %58, 2
  %60 = add nsw i32 %59, 1
  %61 = icmp eq i32 %57, %60
  br i1 %61, label %62, label %81

62:                                               ; preds = %56
  %63 = load i32, i32* %4, align 4
  store i32 %63, i32* %5, align 4
  br label %64

64:                                               ; preds = %76, %62
  %65 = load i32, i32* %5, align 4
  %66 = load i32, i32* %4, align 4
  %67 = load i32, i32* %3, align 4
  %68 = add nsw i32 %66, %67
  %69 = icmp sle i32 %65, %68
  br i1 %69, label %70, label %79

70:                                               ; preds = %64
  %71 = load i32, i32* %5, align 4
  %72 = sext i32 %71 to i64
  %73 = getelementptr inbounds [500 x i8], [500 x i8]* %2, i64 0, i64 %72
  %74 = load i8, i8* %73, align 1
  %75 = call dereferenceable(272) %"class.std::basic_ostream"* @_ZStlsISt11char_traitsIcEERSt13basic_ostreamIcT_ES5_c(%"class.std::basic_ostream"* dereferenceable(272) @_ZSt4cout, i8 signext %74)
  br label %76

76:                                               ; preds = %70
  %77 = load i32, i32* %5, align 4
  %78 = add nsw i32 %77, 1
  store i32 %78, i32* %5, align 4
  br label %64

79:                                               ; preds = %64
  %80 = call dereferenceable(272) %"class.std::basic_ostream"* @_ZNSolsEPFRSoS_E(%"class.std::basic_ostream"* @_ZSt4cout, %"class.std::basic_ostream"* (%"class.std::basic_ostream"*)* @_ZSt4endlIcSt11char_traitsIcEERSt13basic_ostreamIT_T0_ES6_)
  br label %81

81:                                               ; preds = %79, %56
  br label %82

82:                                               ; preds = %81
  %83 = load i32, i32* %4, align 4
  %84 = add nsw i32 %83, 1
  store i32 %84, i32* %4, align 4
  br label %20

85:                                               ; preds = %20
  br label %86

86:                                               ; preds = %85
  %87 = load i32, i32* %3, align 4
  %88 = add nsw i32 %87, 1
  store i32 %88, i32* %3, align 4
  br label %15

89:                                               ; preds = %15
  ret i32 0
}

declare dso_local dereferenceable(280) %"class.std::basic_istream"* @_ZNSi7getlineEPcl(%"class.std::basic_istream"*, i8*, i64) #1

; Function Attrs: nounwind readonly
declare dso_local i64 @strlen(i8*) #5

declare dso_local dereferenceable(272) %"class.std::basic_ostream"* @_ZStlsISt11char_traitsIcEERSt13basic_ostreamIcT_ES5_c(%"class.std::basic_ostream"* dereferenceable(272), i8 signext) #1

declare dso_local dereferenceable(272) %"class.std::basic_ostream"* @_ZNSolsEPFRSoS_E(%"class.std::basic_ostream"*, %"class.std::basic_ostream"* (%"class.std::basic_ostream"*)*) #1

declare dso_local dereferenceable(272) %"class.std::basic_ostream"* @_ZSt4endlIcSt11char_traitsIcEERSt13basic_ostreamIT_T0_ES6_(%"class.std::basic_ostream"* dereferenceable(272)) #1

; Function Attrs: noinline uwtable
define internal void @_GLOBAL__sub_I_851.cpp() #0 section ".text.startup" {
  call void @__cxx_global_var_init()
  ret void
}


!llvm.module.flags = !{!0}
!llvm.ident = !{!1}

!0 = !{i32 1, !"wchar_size", i32 4}
!1 = !{!"clang version 10.0.0-4ubuntu1 "}
